; Function Attrs: mustprogress nounwind uwtable
define dso_local void @_ZN4llvm15LegalizerHelper14widenScalarSrcERNS_12MachineInstrENS_3LLTEjj(ptr nocapture noundef nonnull readonly align 8 dereferenceable(48) %0, ptr nocapture noundef nonnull readonly align 8 dereferenceable(70) %1, i64 %2, i32 noundef %3, i32 noundef %4) local_unnamed_addr #0 align 2 {
  %6 = alloca [1 x %"class.llvm::DstOp"], align 8
  %7 = alloca [1 x %"class.llvm::SrcOp"], align 8
  %8 = getelementptr inbounds nuw i8, ptr %1, i64 32
  %9 = load ptr, ptr %8, align 8
  %10 = zext i32 %3 to i64
  %11 = getelementptr inbounds %"class.llvm::MachineOperand", ptr %9, i64 %10
  %12 = load ptr, ptr %0, align 8
  store i64 %2, ptr %6, align 8
  %13 = getelementptr inbounds nuw i8, ptr %6, i64 8
  store i32 0, ptr %13, align 8
  %14 = getelementptr inbounds nuw i8, ptr %11, i64 4
  %15 = load i32, ptr %14, align 4
  store i32 %15, ptr %7, align 8
  %16 = getelementptr inbounds nuw i8, ptr %7, i64 16
  store i32 0, ptr %16, align 8
  %17 = load ptr, ptr %12, align 8
  %18 = getelementptr inbounds i8, ptr %17, i64 32
  %19 = load ptr, ptr %18, align 8
  %20 = call { ptr, ptr } %19(ptr noundef nonnull align 8 dereferenceable(88) %12, i32 noundef %4, ptr nonnull %6, i64 1, ptr nonnull %7, i64 1, i64 0) #18
  %21 = extractvalue { ptr, ptr } %20, 1
  %22 = getelementptr inbounds nuw i8, ptr %21, i64 32
  %23 = load ptr, ptr %22, align 8
  %24 = getelementptr inbounds i8, ptr %23, i64 4
  %25 = load i32, ptr %24, align 4
  call void @_ZN4llvm14MachineOperand6setRegENS_8RegisterE(ptr noundef nonnull align 8 dereferenceable(32) %11, i32 %25) #18
  ret void
}